; Function Attrs: nounwind sspstrong uwtable
define internal range(i64 0, 21) i64 @ossl_x509_eq(i64 noundef %0, i64 noundef %1) #0 {
  %3 = tail call ptr @rb_check_typeddata(i64 noundef %0, ptr noundef nonnull @ossl_x509_type) #5
  %.not = icmp eq ptr %3, null
  br i1 %.not, label %4, label %6

4:                                                ; preds = %2
  %5 = load i64, ptr @rb_eRuntimeError, align 8, !tbaa !6
  tail call void (i64, ptr, ...) @ossl_raise(i64 noundef %5, ptr noundef nonnull @.str) #6
  unreachable

6:                                                ; preds = %2
  %7 = load i64, ptr @cX509Cert, align 8, !tbaa !6
  %8 = tail call i64 @rb_obj_is_kind_of(i64 noundef %1, i64 noundef %7) #5
  %.not9 = icmp eq i64 %8, 0
  br i1 %.not9, label %16, label %9

9:                                                ; preds = %6
  %10 = tail call ptr @rb_check_typeddata(i64 noundef %1, ptr noundef nonnull @ossl_x509_type) #5
  %.not10 = icmp eq ptr %10, null
  br i1 %.not10, label %11, label %13

11:                                               ; preds = %9
  %12 = load i64, ptr @rb_eRuntimeError, align 8, !tbaa !6
  tail call void (i64, ptr, ...) @ossl_raise(i64 noundef %12, ptr noundef nonnull @.str) #6
  unreachable

13:                                               ; preds = %9
  %14 = tail call i32 @X509_cmp(ptr noundef nonnull %3, ptr noundef nonnull %10) #5
  %.not11 = icmp eq i32 %14, 0
  %15 = select i1 %.not11, i64 20, i64 0
  br label %16

16:                                               ; preds = %6, %13
  %.0 = phi i64 [ %15, %13 ], [ 0, %6 ]
  ret i64 %.0
}